; Function Attrs: nofree norecurse nosync nounwind memory(argmem: read) uwtable
define i32 @lv_roller_get_option_count(ptr noundef readonly captures(address_is_null) %0) local_unnamed_addr #3 {
  %.not = icmp eq ptr %0, null
  br i1 %.not, label %.preheader, label %2

.preheader:                                       ; preds = %1, %.preheader
  br label %.preheader

2:                                                ; preds = %1
  %3 = getelementptr inbounds nuw i8, ptr %0, i64 80
  %4 = load i8, ptr %3, align 8
  %5 = and i8 %4, 3
  %6 = icmp eq i8 %5, 1
  %7 = getelementptr inbounds nuw i8, ptr %0, i64 64
  %8 = load i32, ptr %7, align 8, !tbaa !3
  br i1 %6, label %9, label %13

9:                                                ; preds = %2
  %10 = getelementptr inbounds nuw i8, ptr %0, i64 76
  %11 = load i32, ptr %10, align 4, !tbaa !42
  %12 = udiv i32 %8, %11
  br label %13

13:                                               ; preds = %2, %9
  %.0 = phi i32 [ %12, %9 ], [ %8, %2 ]
  ret i32 %.0
}